; Function Attrs: mustprogress nounwind uwtable
define hidden noundef ptr @_ZN18InterpreterRuntime26frequency_counter_overflowEP10JavaThreadPh(ptr noundef %0, ptr noundef %1) local_unnamed_addr #0 align 2 {
  %3 = alloca %class.LastFrameAccessor, align 8
  %4 = tail call noundef ptr @_ZN18InterpreterRuntime32frequency_counter_overflow_innerEP10JavaThreadPh(ptr noundef %0, ptr noundef %1)
  %5 = icmp ne ptr %1, null
  %6 = icmp ne ptr %4, null
  %or.cond = and i1 %5, %6
  br i1 %or.cond, label %7, label %30

7:                                                ; preds = %2
  %8 = getelementptr inbounds i8, ptr %3, i64 40
  %9 = getelementptr inbounds i8, ptr %3, i64 32
  call void @llvm.memset.p0.i64(ptr noundef nonnull align 8 dereferenceable(24) %3, i8 0, i64 24, i1 false)
  call void @llvm.memset.p0.i64(ptr noundef nonnull align 8 dereferenceable(16) %8, i8 0, i64 16, i1 false)
  store i32 2, ptr %9, align 8
  %10 = getelementptr inbounds i8, ptr %3, i64 24
  store ptr null, ptr %10, align 8
  %11 = getelementptr inbounds i8, ptr %3, i64 36
  store i8 0, ptr %11, align 4
  %12 = getelementptr inbounds i8, ptr %0, i64 928
  tail call void @_ZN15JavaFrameAnchor13make_walkableEv(ptr noundef nonnull align 8 dereferenceable(24) %12) #13, !noalias !46
  call void @_ZN10JavaThread13pd_last_frameEv(ptr dead_on_unwind nonnull writable sret(%class.frame) align 8 %3, ptr noundef nonnull align 8 dereferenceable(1800) %0) #13
  %13 = call noundef ptr @_ZNK5frame24interpreter_frame_methodEv(ptr noundef nonnull align 8 dereferenceable(56) %3) #13
  %14 = call noundef ptr @_ZNK5frame21interpreter_frame_bcpEv(ptr noundef nonnull align 8 dereferenceable(56) %3) #13
  %15 = call noundef i32 @_ZNK6Method8bci_fromEPh(ptr noundef nonnull align 8 dereferenceable(88) %13, ptr noundef %14) #13
  %16 = getelementptr inbounds i8, ptr %13, i64 8
  %17 = load ptr, ptr %16, align 8
  %18 = getelementptr inbounds i8, ptr %17, i64 8
  %19 = load ptr, ptr %18, align 8
  %20 = getelementptr inbounds i8, ptr %19, i64 24
  %21 = load ptr, ptr %20, align 8
  %22 = call noundef ptr @_ZNK13InstanceKlass18lookup_osr_nmethodEPK6Methodiib(ptr noundef nonnull align 8 dereferenceable(464) %21, ptr noundef nonnull %13, i32 noundef %15, i32 noundef 0, i1 noundef zeroext false) #13
  %23 = load ptr, ptr @_ZN10BarrierSet12_barrier_setE, align 8
  %24 = getelementptr inbounds i8, ptr %23, i64 48
  %25 = load ptr, ptr %24, align 8
  %26 = icmp ne ptr %22, null
  %27 = icmp ne ptr %25, null
  %or.cond3 = and i1 %26, %27
  br i1 %or.cond3, label %28, label %30

28:                                               ; preds = %7
  %29 = call noundef zeroext i1 @_ZN17BarrierSetNMethod25nmethod_osr_entry_barrierEP7nmethod(ptr noundef nonnull align 8 dereferenceable(12) %25, ptr noundef nonnull %22) #13
  br i1 %29, label %.thread22, label %.thread

30:                                               ; preds = %7, %2
  %.0 = phi ptr [ %22, %7 ], [ %4, %2 ]
  %.not = icmp eq ptr %.0, null
  br i1 %.not, label %.thread, label %.thread22

.thread22:                                        ; preds = %28, %30
  %.025 = phi ptr [ %.0, %30 ], [ %22, %28 ]
  %31 = getelementptr inbounds i8, ptr %0, i64 1544
  %32 = load i32, ptr %31, align 8
  %.not26 = icmp eq i32 %32, 0
  %spec.select19 = select i1 %.not26, ptr %.025, ptr null
  br label %.thread

.thread:                                          ; preds = %28, %.thread22, %30
  %.1 = phi ptr [ null, %30 ], [ %spec.select19, %.thread22 ], [ null, %28 ]
  ret ptr %.1
}